target datalayout = "e-m:e-p270:32:32-p271:32:32-p272:64:64-i64:64-i128:128-f80:128-n8:16:32:64-S128"
target triple = "x86_64-pc-linux-gnu"

%class.StubCodeMark = type { ptr, ptr }
%class.StubCodeGenerator = type { ptr, i8, ptr }
%class.CodeSection = type { ptr, ptr, ptr, ptr, ptr, ptr, ptr, ptr, i8, i8, i32, i8, ptr }
%class.AbstractAssembler = type { ptr, ptr, ptr }

@.str = private unnamed_addr constant [13 x i8] c"StubRoutines\00", align 1
@CodeEntryAlignment = external global i64, align 8

; Function Attrs: mustprogress nounwind uwtable
define linkonce_odr hidden noundef ptr @_ZNK11CodeSection3endEv(ptr noundef nonnull align 8 dereferenceable(88) %0) #1 comdat align 2 {
  %2 = alloca ptr, align 8
  store ptr %0, ptr %2, align 8
  %3 = load ptr, ptr %2, align 8
  %4 = getelementptr inbounds %class.CodeSection, ptr %3, i32 0, i32 2
  %5 = load ptr, ptr %4, align 8
  ret ptr %5
}

; Function Attrs: mustprogress nounwind uwtable
define linkonce_odr hidden noundef ptr @_ZNK17AbstractAssembler12code_sectionEv(ptr noundef nonnull align 8 dereferenceable(24) %0) #1 comdat align 2 {
  %2 = alloca ptr, align 8
  store ptr %0, ptr %2, align 8
  %3 = load ptr, ptr %2, align 8
  %4 = getelementptr inbounds %class.AbstractAssembler, ptr %3, i32 0, i32 1
  %5 = load ptr, ptr %4, align 8
  ret ptr %5
}

; Function Attrs: mustprogress nounwind uwtable
define linkonce_odr hidden noundef ptr @_ZNK17AbstractAssembler2pcEv(ptr noundef nonnull align 8 dereferenceable(24) %0) #1 comdat align 2 {
  %2 = alloca ptr, align 8
  store ptr %0, ptr %2, align 8
  %3 = load ptr, ptr %2, align 8
  %4 = call noundef ptr @_ZNK17AbstractAssembler12code_sectionEv(ptr noundef nonnull align 8 dereferenceable(24) %3)
  %5 = call noundef ptr @_ZNK11CodeSection3endEv(ptr noundef nonnull align 8 dereferenceable(88) %4)
  ret ptr %5
}

; Function Attrs: mustprogress nounwind uwtable
define hidden noundef ptr @_ZN13StubGenerator26generate_expand_perm_tableEPKci(ptr noundef nonnull align 8 dereferenceable(24) %0, ptr noundef %1, i32 noundef %2) #1 align 2 {
  %4 = alloca ptr, align 8
  %5 = alloca ptr, align 8
  %6 = alloca i32, align 4
  %7 = alloca %class.StubCodeMark, align 8
  %8 = alloca ptr, align 8
  %9 = alloca i32, align 4
  %10 = alloca i32, align 4
  %11 = alloca i32, align 4
  %12 = alloca i32, align 4
  %13 = alloca i32, align 4
  %14 = alloca i32, align 4
  store ptr %0, ptr %4, align 8
  store ptr %1, ptr %5, align 8
  store i32 %2, ptr %6, align 4
  %15 = load ptr, ptr %4, align 8
  %16 = getelementptr inbounds %class.StubCodeGenerator, ptr %15, i32 0, i32 2
  %17 = load ptr, ptr %16, align 8
  %18 = load i64, ptr @CodeEntryAlignment, align 8
  %19 = trunc i64 %18 to i32
  call void @_ZN14MacroAssembler5alignEj(ptr noundef nonnull align 8 dereferenceable(40) %17, i32 noundef %19)
  %20 = load ptr, ptr %5, align 8
  call void @_ZN12StubCodeMarkC1EP17StubCodeGeneratorPKcS3_(ptr noundef nonnull align 8 dereferenceable(16) %7, ptr noundef %15, ptr noundef @.str, ptr noundef %20)
  %21 = getelementptr inbounds %class.StubCodeGenerator, ptr %15, i32 0, i32 2
  %22 = load ptr, ptr %21, align 8
  %23 = call noundef ptr @_ZNK17AbstractAssembler2pcEv(ptr noundef nonnull align 8 dereferenceable(24) %22)
  store ptr %23, ptr %8, align 8
  %24 = load i32, ptr %6, align 4
  %25 = icmp eq i32 %24, 32
  br i1 %25, label %26, label %57

26:                                               ; preds = %3
  store i32 0, ptr %9, align 4
  br label %27

27:                                               ; preds = %53, %26
  %28 = load i32, ptr %9, align 4
  %29 = icmp slt i32 %28, 256
  br i1 %29, label %30, label %56

30:                                               ; preds = %27
  store i32 0, ptr %10, align 4
  store i32 0, ptr %11, align 4
  br label %31

31:                                               ; preds = %49, %30
  %32 = load i32, ptr %11, align 4
  %33 = icmp slt i32 %32, 8
  br i1 %33, label %34, label %52

34:                                               ; preds = %31
  %35 = load i32, ptr %9, align 4
  %36 = load i32, ptr %11, align 4
  %37 = shl i32 1, %36
  %38 = and i32 %35, %37
  %39 = icmp ne i32 %38, 0
  br i1 %39, label %40, label %45

40:                                               ; preds = %34
  %41 = getelementptr inbounds %class.StubCodeGenerator, ptr %15, i32 0, i32 2
  %42 = load ptr, ptr %41, align 8
  %43 = load i32, ptr %10, align 4
  %44 = add nsw i32 %43, 1
  store i32 %44, ptr %10, align 4
  call void @_ZN9Assembler9emit_dataEiN9relocInfo9relocTypeEi(ptr noundef nonnull align 8 dereferenceable(40) %42, i32 noundef %43, i32 noundef 0, i32 noundef 0)
  br label %48

45:                                               ; preds = %34
  %46 = getelementptr inbounds %class.StubCodeGenerator, ptr %15, i32 0, i32 2
  %47 = load ptr, ptr %46, align 8
  call void @_ZN9Assembler9emit_dataEiN9relocInfo9relocTypeEi(ptr noundef nonnull align 8 dereferenceable(40) %47, i32 noundef -1, i32 noundef 0, i32 noundef 0)
  br label %48

48:                                               ; preds = %45, %40
  br label %49

49:                                               ; preds = %48
  %50 = load i32, ptr %11, align 4
  %51 = add nsw i32 %50, 1
  store i32 %51, ptr %11, align 4
  br label %31, !llvm.loop !13

52:                                               ; preds = %31
  br label %53

53:                                               ; preds = %52
  %54 = load i32, ptr %9, align 4
  %55 = add nsw i32 %54, 1
  store i32 %55, ptr %9, align 4
  br label %27, !llvm.loop !14

56:                                               ; preds = %27
  br label %95

57:                                               ; preds = %3
  store i32 0, ptr %12, align 4
  br label %58

58:                                               ; preds = %91, %57
  %59 = load i32, ptr %12, align 4
  %60 = icmp slt i32 %59, 16
  br i1 %60, label %61, label %94

61:                                               ; preds = %58
  store i32 0, ptr %13, align 4
  store i32 0, ptr %14, align 4
  br label %62

62:                                               ; preds = %87, %61
  %63 = load i32, ptr %14, align 4
  %64 = icmp slt i32 %63, 4
  br i1 %64, label %65, label %90

65:                                               ; preds = %62
  %66 = load i32, ptr %12, align 4
  %67 = load i32, ptr %14, align 4
  %68 = shl i32 1, %67
  %69 = and i32 %66, %68
  %70 = icmp ne i32 %69, 0
  br i1 %70, label %71, label %83

71:                                               ; preds = %65
  %72 = getelementptr inbounds %class.StubCodeGenerator, ptr %15, i32 0, i32 2
  %73 = load ptr, ptr %72, align 8
  %74 = load i32, ptr %13, align 4
  %75 = mul nsw i32 2, %74
  call void @_ZN9Assembler9emit_dataEiN9relocInfo9relocTypeEi(ptr noundef nonnull align 8 dereferenceable(40) %73, i32 noundef %75, i32 noundef 0, i32 noundef 0)
  %76 = getelementptr inbounds %class.StubCodeGenerator, ptr %15, i32 0, i32 2
  %77 = load ptr, ptr %76, align 8
  %78 = load i32, ptr %13, align 4
  %79 = mul nsw i32 2, %78
  %80 = add nsw i32 %79, 1
  call void @_ZN9Assembler9emit_dataEiN9relocInfo9relocTypeEi(ptr noundef nonnull align 8 dereferenceable(40) %77, i32 noundef %80, i32 noundef 0, i32 noundef 0)
  %81 = load i32, ptr %13, align 4
  %82 = add nsw i32 %81, 1
  store i32 %82, ptr %13, align 4
  br label %86

83:                                               ; preds = %65
  %84 = getelementptr inbounds %class.StubCodeGenerator, ptr %15, i32 0, i32 2
  %85 = load ptr, ptr %84, align 8
  call void @_ZN9Assembler11emit_data64ElN9relocInfo9relocTypeEi(ptr noundef nonnull align 8 dereferenceable(40) %85, i64 noundef -1, i32 noundef 0, i32 noundef 0)
  br label %86

86:                                               ; preds = %83, %71
  br label %87

87:                                               ; preds = %86
  %88 = load i32, ptr %14, align 4
  %89 = add nsw i32 %88, 1
  store i32 %89, ptr %14, align 4
  br label %62, !llvm.loop !15

90:                                               ; preds = %62
  br label %91

91:                                               ; preds = %90
  %92 = load i32, ptr %12, align 4
  %93 = add nsw i32 %92, 1
  store i32 %93, ptr %12, align 4
  br label %58, !llvm.loop !16

94:                                               ; preds = %58
  br label %95

95:                                               ; preds = %94, %56
  %96 = load ptr, ptr %8, align 8
  call void @_ZN12StubCodeMarkD1Ev(ptr noundef nonnull align 8 dereferenceable(16) %7) #7
  ret ptr %96
}