; Function Attrs: mustprogress nounwind uwtable
define hidden noundef ptr @_ZN13StubGenerator26generate_expand_perm_tableEPKci(ptr noundef nonnull align 8 dereferenceable(24) %0, ptr noundef %1, i32 noundef %2) local_unnamed_addr #0 align 2 {
  %4 = alloca %class.StubCodeMark, align 8
  %5 = getelementptr inbounds i8, ptr %0, i64 16
  %6 = load ptr, ptr %5, align 8
  %7 = load i64, ptr @CodeEntryAlignment, align 8
  %8 = trunc i64 %7 to i32
  tail call void @_ZN14MacroAssembler5alignEj(ptr noundef nonnull align 8 dereferenceable(40) %6, i32 noundef %8) #12
  call void @_ZN12StubCodeMarkC1EP17StubCodeGeneratorPKcS3_(ptr noundef nonnull align 8 dereferenceable(16) %4, ptr noundef nonnull %0, ptr noundef nonnull @.str, ptr noundef %1) #12
  %9 = load ptr, ptr %5, align 8
  %10 = getelementptr inbounds i8, ptr %9, i64 8
  %11 = load ptr, ptr %10, align 8
  %12 = getelementptr inbounds i8, ptr %11, i64 16
  %13 = load ptr, ptr %12, align 8
  %14 = icmp eq i32 %2, 32
  br i1 %14, label %.preheader, label %.preheader27

.preheader:                                       ; preds = %3, %21
  %.02435 = phi i32 [ %22, %21 ], [ 0, %3 ]
  br label %15

15:                                               ; preds = %.preheader, %15
  %.02134 = phi i32 [ 0, %.preheader ], [ %20, %15 ]
  %.02233 = phi i32 [ 0, %.preheader ], [ %.123, %15 ]
  %16 = shl nuw nsw i32 1, %.02134
  %17 = and i32 %16, %.02435
  %.not25 = icmp ne i32 %17, 0
  %18 = load ptr, ptr %5, align 8
  %.02233.sink = select i1 %.not25, i32 %.02233, i32 -1
  %19 = zext i1 %.not25 to i32
  %.123 = add nuw nsw i32 %.02233, %19
  call void @_ZN9Assembler9emit_dataEiN9relocInfo9relocTypeEi(ptr noundef nonnull align 8 dereferenceable(40) %18, i32 noundef %.02233.sink, i32 noundef 0, i32 noundef 0) #12
  %20 = add nuw nsw i32 %.02134, 1
  %exitcond38.not = icmp eq i32 %20, 8
  br i1 %exitcond38.not, label %21, label %15, !llvm.loop !13

21:                                               ; preds = %15
  %22 = add nuw nsw i32 %.02435, 1
  %exitcond39.not = icmp eq i32 %22, 256
  br i1 %exitcond39.not, label %.loopexit, label %.preheader, !llvm.loop !14

.preheader27:                                     ; preds = %3, %35
  %.02032 = phi i32 [ %36, %35 ], [ 0, %3 ]
  br label %23

23:                                               ; preds = %.preheader27, %33
  %.031 = phi i32 [ 0, %.preheader27 ], [ %34, %33 ]
  %.01930 = phi i32 [ 0, %.preheader27 ], [ %.1, %33 ]
  %24 = shl nuw nsw i32 1, %.031
  %25 = and i32 %24, %.02032
  %.not = icmp eq i32 %25, 0
  %26 = load ptr, ptr %5, align 8
  br i1 %.not, label %32, label %27

27:                                               ; preds = %23
  %28 = shl nsw i32 %.01930, 1
  call void @_ZN9Assembler9emit_dataEiN9relocInfo9relocTypeEi(ptr noundef nonnull align 8 dereferenceable(40) %26, i32 noundef %28, i32 noundef 0, i32 noundef 0) #12
  %29 = load ptr, ptr %5, align 8
  %30 = or disjoint i32 %28, 1
  call void @_ZN9Assembler9emit_dataEiN9relocInfo9relocTypeEi(ptr noundef nonnull align 8 dereferenceable(40) %29, i32 noundef %30, i32 noundef 0, i32 noundef 0) #12
  %31 = add nsw i32 %.01930, 1
  br label %33

32:                                               ; preds = %23
  call void @_ZN9Assembler11emit_data64ElN9relocInfo9relocTypeEi(ptr noundef nonnull align 8 dereferenceable(40) %26, i64 noundef -1, i32 noundef 0, i32 noundef 0) #12
  br label %33

33:                                               ; preds = %27, %32
  %.1 = phi i32 [ %31, %27 ], [ %.01930, %32 ]
  %34 = add nuw nsw i32 %.031, 1
  %exitcond.not = icmp eq i32 %34, 4
  br i1 %exitcond.not, label %35, label %23, !llvm.loop !15

35:                                               ; preds = %33
  %36 = add nuw nsw i32 %.02032, 1
  %exitcond37.not = icmp eq i32 %36, 16
  br i1 %exitcond37.not, label %.loopexit, label %.preheader27, !llvm.loop !16

.loopexit:                                        ; preds = %35, %21
  call void @_ZN12StubCodeMarkD1Ev(ptr noundef nonnull align 8 dereferenceable(16) %4) #12
  ret ptr %13
}